; Function Attrs: mustprogress nofree norecurse nosync nounwind memory(argmem: readwrite, inaccessiblemem: write) uwtable
define dso_local void @_ZN4llvm3MD55finalERNS0_9MD5ResultE(ptr noundef nonnull align 4 dereferenceable(152) %0, ptr noundef nonnull align 1 dereferenceable(16) %1) local_unnamed_addr #4 align 2 {
  %3 = getelementptr inbounds nuw i8, ptr %0, i64 20
  %4 = load i32, ptr %3, align 4
  %5 = and i32 %4, 63
  %6 = zext nneg i32 %5 to i64
  %7 = getelementptr inbounds nuw i8, ptr %0, i64 24
  %8 = add nuw nsw i64 %6, 1
  %9 = getelementptr inbounds nuw [64 x i8], ptr %7, i64 0, i64 %6
  store i8 -128, ptr %9, align 1
  %10 = xor i64 %6, 63
  %11 = icmp samesign ult i64 %10, 8
  br i1 %11, label %12, label %15

12:                                               ; preds = %2
  %13 = getelementptr inbounds nuw [64 x i8], ptr %7, i64 0, i64 %8
  tail call void @llvm.memset.p0.i64(ptr nonnull align 1 %13, i8 0, i64 %10, i1 false)
  %14 = tail call noundef ptr @_ZN4llvm3MD54bodyENS_8ArrayRefIhEE(ptr noundef nonnull align 4 dereferenceable(152) %0, ptr nonnull %7, i64 64)
  %.pre = load i32, ptr %3, align 4
  br label %15

15:                                               ; preds = %12, %2
  %16 = phi i32 [ %.pre, %12 ], [ %4, %2 ]
  %.011 = phi i64 [ 0, %12 ], [ %8, %2 ]
  %.0 = phi i64 [ 64, %12 ], [ %10, %2 ]
  %17 = getelementptr inbounds nuw [64 x i8], ptr %7, i64 0, i64 %.011
  %18 = add nsw i64 %.0, -8
  tail call void @llvm.memset.p0.i64(ptr nonnull align 1 %17, i8 0, i64 %18, i1 false)
  %19 = shl i32 %16, 3
  store i32 %19, ptr %3, align 4
  %20 = getelementptr inbounds nuw i8, ptr %0, i64 80
  call void @llvm.assume(i1 true) [ "align"(ptr %20, i64 1) ]
  store i32 %19, ptr %20, align 4
  %21 = getelementptr inbounds nuw i8, ptr %0, i64 84
  %22 = getelementptr inbounds nuw i8, ptr %0, i64 16
  %23 = load i32, ptr %22, align 4
  call void @llvm.assume(i1 true) [ "align"(ptr %21, i64 1) ]
  store i32 %23, ptr %21, align 4
  %24 = tail call noundef ptr @_ZN4llvm3MD54bodyENS_8ArrayRefIhEE(ptr noundef nonnull align 4 dereferenceable(152) %0, ptr nonnull %7, i64 64)
  %25 = load i32, ptr %0, align 4
  call void @llvm.assume(i1 true) [ "align"(ptr %1, i64 1) ]
  store i32 %25, ptr %1, align 1
  %26 = getelementptr inbounds nuw i8, ptr %1, i64 4
  %27 = getelementptr inbounds nuw i8, ptr %0, i64 4
  %28 = load i32, ptr %27, align 4
  call void @llvm.assume(i1 true) [ "align"(ptr %26, i64 1) ]
  store i32 %28, ptr %26, align 1
  %29 = getelementptr inbounds nuw i8, ptr %1, i64 8
  %30 = getelementptr inbounds nuw i8, ptr %0, i64 8
  %31 = load i32, ptr %30, align 4
  call void @llvm.assume(i1 true) [ "align"(ptr %29, i64 1) ]
  store i32 %31, ptr %29, align 1
  %32 = getelementptr inbounds nuw i8, ptr %1, i64 12
  %33 = getelementptr inbounds nuw i8, ptr %0, i64 12
  %34 = load i32, ptr %33, align 4
  call void @llvm.assume(i1 true) [ "align"(ptr %32, i64 1) ]
  store i32 %34, ptr %32, align 1
  ret void
}